
;CodeVisionAVR C Compiler V2.05.3 Standard
;(C) Copyright 1998-2011 Pavel Haiduc, HP InfoTech s.r.l.
;http://www.hpinfotech.com

;Chip type                : ATmega64
;Program type             : Application
;Clock frequency          : 8.000000 MHz
;Memory model             : Small
;Optimize for             : Size
;(s)printf features       : int, width
;(s)scanf features        : int, width
;External RAM size        : 0
;Data Stack size          : 1024 byte(s)
;Heap size                : 0 byte(s)
;Promote 'char' to 'int'  : Yes
;'char' is unsigned       : Yes
;8 bit enums              : Yes
;Global 'const' stored in FLASH     : No
;Enhanced function parameter passing: Yes
;Enhanced core instructions         : On
;Smart register allocation          : On
;Automatic register allocation      : On

	#pragma AVRPART ADMIN PART_NAME ATmega64
	#pragma AVRPART MEMORY PROG_FLASH 65536
	#pragma AVRPART MEMORY EEPROM 2048
	#pragma AVRPART MEMORY INT_SRAM SIZE 4351
	#pragma AVRPART MEMORY INT_SRAM START_ADDR 0x100

	#define CALL_SUPPORTED 1

	.LISTMAC
	.EQU UDRE=0x5
	.EQU RXC=0x7
	.EQU USR=0xB
	.EQU UDR=0xC
	.EQU SPSR=0xE
	.EQU SPDR=0xF
	.EQU EERE=0x0
	.EQU EEWE=0x1
	.EQU EEMWE=0x2
	.EQU EECR=0x1C
	.EQU EEDR=0x1D
	.EQU EEARL=0x1E
	.EQU EEARH=0x1F
	.EQU WDTCR=0x21
	.EQU MCUCR=0x35
	.EQU SPL=0x3D
	.EQU SPH=0x3E
	.EQU SREG=0x3F
	.EQU XMCRA=0x6D
	.EQU XMCRB=0x6C

	.DEF R0X0=R0
	.DEF R0X1=R1
	.DEF R0X2=R2
	.DEF R0X3=R3
	.DEF R0X4=R4
	.DEF R0X5=R5
	.DEF R0X6=R6
	.DEF R0X7=R7
	.DEF R0X8=R8
	.DEF R0X9=R9
	.DEF R0XA=R10
	.DEF R0XB=R11
	.DEF R0XC=R12
	.DEF R0XD=R13
	.DEF R0XE=R14
	.DEF R0XF=R15
	.DEF R0X10=R16
	.DEF R0X11=R17
	.DEF R0X12=R18
	.DEF R0X13=R19
	.DEF R0X14=R20
	.DEF R0X15=R21
	.DEF R0X16=R22
	.DEF R0X17=R23
	.DEF R0X18=R24
	.DEF R0X19=R25
	.DEF R0X1A=R26
	.DEF R0X1B=R27
	.DEF R0X1C=R28
	.DEF R0X1D=R29
	.DEF R0X1E=R30
	.DEF R0X1F=R31

	.EQU __SRAM_START=0x0100
	.EQU __SRAM_END=0x10FF
	.EQU __DSTACK_SIZE=0x0400
	.EQU __HEAP_SIZE=0x0000
	.EQU __CLEAR_SRAM_SIZE=__SRAM_END-__SRAM_START+1

	.MACRO __CPD1N
	CPI  R30,LOW(@0)
	LDI  R26,HIGH(@0)
	CPC  R31,R26
	LDI  R26,BYTE3(@0)
	CPC  R22,R26
	LDI  R26,BYTE4(@0)
	CPC  R23,R26
	.ENDM

	.MACRO __CPD2N
	CPI  R26,LOW(@0)
	LDI  R30,HIGH(@0)
	CPC  R27,R30
	LDI  R30,BYTE3(@0)
	CPC  R24,R30
	LDI  R30,BYTE4(@0)
	CPC  R25,R30
	.ENDM

	.MACRO __CPWRR
	CP   R@0,R@2
	CPC  R@1,R@3
	.ENDM

	.MACRO __CPWRN
	CPI  R@0,LOW(@2)
	LDI  R30,HIGH(@2)
	CPC  R@1,R30
	.ENDM

	.MACRO __ADDB1MN
	SUBI R30,LOW(-@0-(@1))
	.ENDM

	.MACRO __ADDB2MN
	SUBI R26,LOW(-@0-(@1))
	.ENDM

	.MACRO __ADDW1MN
	SUBI R30,LOW(-@0-(@1))
	SBCI R31,HIGH(-@0-(@1))
	.ENDM

	.MACRO __ADDW2MN
	SUBI R26,LOW(-@0-(@1))
	SBCI R27,HIGH(-@0-(@1))
	.ENDM

	.MACRO __ADDW1FN
	SUBI R30,LOW(-2*@0-(@1))
	SBCI R31,HIGH(-2*@0-(@1))
	.ENDM

	.MACRO __ADDD1FN
	SUBI R30,LOW(-2*@0-(@1))
	SBCI R31,HIGH(-2*@0-(@1))
	SBCI R22,BYTE3(-2*@0-(@1))
	.ENDM

	.MACRO __ADDD1N
	SUBI R30,LOW(-@0)
	SBCI R31,HIGH(-@0)
	SBCI R22,BYTE3(-@0)
	SBCI R23,BYTE4(-@0)
	.ENDM

	.MACRO __ADDD2N
	SUBI R26,LOW(-@0)
	SBCI R27,HIGH(-@0)
	SBCI R24,BYTE3(-@0)
	SBCI R25,BYTE4(-@0)
	.ENDM

	.MACRO __SUBD1N
	SUBI R30,LOW(@0)
	SBCI R31,HIGH(@0)
	SBCI R22,BYTE3(@0)
	SBCI R23,BYTE4(@0)
	.ENDM

	.MACRO __SUBD2N
	SUBI R26,LOW(@0)
	SBCI R27,HIGH(@0)
	SBCI R24,BYTE3(@0)
	SBCI R25,BYTE4(@0)
	.ENDM

	.MACRO __ANDBMNN
	LDS  R30,@0+(@1)
	ANDI R30,LOW(@2)
	STS  @0+(@1),R30
	.ENDM

	.MACRO __ANDWMNN
	LDS  R30,@0+(@1)
	ANDI R30,LOW(@2)
	STS  @0+(@1),R30
	LDS  R30,@0+(@1)+1
	ANDI R30,HIGH(@2)
	STS  @0+(@1)+1,R30
	.ENDM

	.MACRO __ANDD1N
	ANDI R30,LOW(@0)
	ANDI R31,HIGH(@0)
	ANDI R22,BYTE3(@0)
	ANDI R23,BYTE4(@0)
	.ENDM

	.MACRO __ANDD2N
	ANDI R26,LOW(@0)
	ANDI R27,HIGH(@0)
	ANDI R24,BYTE3(@0)
	ANDI R25,BYTE4(@0)
	.ENDM

	.MACRO __ORBMNN
	LDS  R30,@0+(@1)
	ORI  R30,LOW(@2)
	STS  @0+(@1),R30
	.ENDM

	.MACRO __ORWMNN
	LDS  R30,@0+(@1)
	ORI  R30,LOW(@2)
	STS  @0+(@1),R30
	LDS  R30,@0+(@1)+1
	ORI  R30,HIGH(@2)
	STS  @0+(@1)+1,R30
	.ENDM

	.MACRO __ORD1N
	ORI  R30,LOW(@0)
	ORI  R31,HIGH(@0)
	ORI  R22,BYTE3(@0)
	ORI  R23,BYTE4(@0)
	.ENDM

	.MACRO __ORD2N
	ORI  R26,LOW(@0)
	ORI  R27,HIGH(@0)
	ORI  R24,BYTE3(@0)
	ORI  R25,BYTE4(@0)
	.ENDM

	.MACRO __DELAY_USB
	LDI  R24,LOW(@0)
__DELAY_USB_LOOP:
	DEC  R24
	BRNE __DELAY_USB_LOOP
	.ENDM

	.MACRO __DELAY_USW
	LDI  R24,LOW(@0)
	LDI  R25,HIGH(@0)
__DELAY_USW_LOOP:
	SBIW R24,1
	BRNE __DELAY_USW_LOOP
	.ENDM

	.MACRO __GETD1S
	LDD  R30,Y+@0
	LDD  R31,Y+@0+1
	LDD  R22,Y+@0+2
	LDD  R23,Y+@0+3
	.ENDM

	.MACRO __GETD2S
	LDD  R26,Y+@0
	LDD  R27,Y+@0+1
	LDD  R24,Y+@0+2
	LDD  R25,Y+@0+3
	.ENDM

	.MACRO __PUTD1S
	STD  Y+@0,R30
	STD  Y+@0+1,R31
	STD  Y+@0+2,R22
	STD  Y+@0+3,R23
	.ENDM

	.MACRO __PUTD2S
	STD  Y+@0,R26
	STD  Y+@0+1,R27
	STD  Y+@0+2,R24
	STD  Y+@0+3,R25
	.ENDM

	.MACRO __PUTDZ2
	STD  Z+@0,R26
	STD  Z+@0+1,R27
	STD  Z+@0+2,R24
	STD  Z+@0+3,R25
	.ENDM

	.MACRO __CLRD1S
	STD  Y+@0,R30
	STD  Y+@0+1,R30
	STD  Y+@0+2,R30
	STD  Y+@0+3,R30
	.ENDM

	.MACRO __POINTB1MN
	LDI  R30,LOW(@0+(@1))
	.ENDM

	.MACRO __POINTW1MN
	LDI  R30,LOW(@0+(@1))
	LDI  R31,HIGH(@0+(@1))
	.ENDM

	.MACRO __POINTD1M
	LDI  R30,LOW(@0)
	LDI  R31,HIGH(@0)
	LDI  R22,BYTE3(@0)
	LDI  R23,BYTE4(@0)
	.ENDM

	.MACRO __POINTW1FN
	LDI  R30,LOW(2*@0+(@1))
	LDI  R31,HIGH(2*@0+(@1))
	.ENDM

	.MACRO __POINTD1FN
	LDI  R30,LOW(2*@0+(@1))
	LDI  R31,HIGH(2*@0+(@1))
	LDI  R22,BYTE3(2*@0+(@1))
	LDI  R23,BYTE4(2*@0+(@1))
	.ENDM

	.MACRO __POINTB2MN
	LDI  R26,LOW(@0+(@1))
	.ENDM

	.MACRO __POINTW2MN
	LDI  R26,LOW(@0+(@1))
	LDI  R27,HIGH(@0+(@1))
	.ENDM

	.MACRO __POINTW2FN
	LDI  R26,LOW(2*@0+(@1))
	LDI  R27,HIGH(2*@0+(@1))
	.ENDM

	.MACRO __POINTD2FN
	LDI  R26,LOW(2*@0+(@1))
	LDI  R27,HIGH(2*@0+(@1))
	LDI  R24,BYTE3(2*@0+(@1))
	LDI  R25,BYTE4(2*@0+(@1))
	.ENDM

	.MACRO __POINTBRM
	LDI  R@0,LOW(@1)
	.ENDM

	.MACRO __POINTWRM
	LDI  R@0,LOW(@2)
	LDI  R@1,HIGH(@2)
	.ENDM

	.MACRO __POINTBRMN
	LDI  R@0,LOW(@1+(@2))
	.ENDM

	.MACRO __POINTWRMN
	LDI  R@0,LOW(@2+(@3))
	LDI  R@1,HIGH(@2+(@3))
	.ENDM

	.MACRO __POINTWRFN
	LDI  R@0,LOW(@2*2+(@3))
	LDI  R@1,HIGH(@2*2+(@3))
	.ENDM

	.MACRO __GETD1N
	LDI  R30,LOW(@0)
	LDI  R31,HIGH(@0)
	LDI  R22,BYTE3(@0)
	LDI  R23,BYTE4(@0)
	.ENDM

	.MACRO __GETD2N
	LDI  R26,LOW(@0)
	LDI  R27,HIGH(@0)
	LDI  R24,BYTE3(@0)
	LDI  R25,BYTE4(@0)
	.ENDM

	.MACRO __GETB1MN
	LDS  R30,@0+(@1)
	.ENDM

	.MACRO __GETB1HMN
	LDS  R31,@0+(@1)
	.ENDM

	.MACRO __GETW1MN
	LDS  R30,@0+(@1)
	LDS  R31,@0+(@1)+1
	.ENDM

	.MACRO __GETD1MN
	LDS  R30,@0+(@1)
	LDS  R31,@0+(@1)+1
	LDS  R22,@0+(@1)+2
	LDS  R23,@0+(@1)+3
	.ENDM

	.MACRO __GETBRMN
	LDS  R@0,@1+(@2)
	.ENDM

	.MACRO __GETWRMN
	LDS  R@0,@2+(@3)
	LDS  R@1,@2+(@3)+1
	.ENDM

	.MACRO __GETWRZ
	LDD  R@0,Z+@2
	LDD  R@1,Z+@2+1
	.ENDM

	.MACRO __GETD2Z
	LDD  R26,Z+@0
	LDD  R27,Z+@0+1
	LDD  R24,Z+@0+2
	LDD  R25,Z+@0+3
	.ENDM

	.MACRO __GETB2MN
	LDS  R26,@0+(@1)
	.ENDM

	.MACRO __GETW2MN
	LDS  R26,@0+(@1)
	LDS  R27,@0+(@1)+1
	.ENDM

	.MACRO __GETD2MN
	LDS  R26,@0+(@1)
	LDS  R27,@0+(@1)+1
	LDS  R24,@0+(@1)+2
	LDS  R25,@0+(@1)+3
	.ENDM

	.MACRO __PUTB1MN
	STS  @0+(@1),R30
	.ENDM

	.MACRO __PUTW1MN
	STS  @0+(@1),R30
	STS  @0+(@1)+1,R31
	.ENDM

	.MACRO __PUTD1MN
	STS  @0+(@1),R30
	STS  @0+(@1)+1,R31
	STS  @0+(@1)+2,R22
	STS  @0+(@1)+3,R23
	.ENDM

	.MACRO __PUTB1EN
	LDI  R26,LOW(@0+(@1))
	LDI  R27,HIGH(@0+(@1))
	CALL __EEPROMWRB
	.ENDM

	.MACRO __PUTW1EN
	LDI  R26,LOW(@0+(@1))
	LDI  R27,HIGH(@0+(@1))
	CALL __EEPROMWRW
	.ENDM

	.MACRO __PUTD1EN
	LDI  R26,LOW(@0+(@1))
	LDI  R27,HIGH(@0+(@1))
	CALL __EEPROMWRD
	.ENDM

	.MACRO __PUTBR0MN
	STS  @0+(@1),R0
	.ENDM

	.MACRO __PUTBMRN
	STS  @0+(@1),R@2
	.ENDM

	.MACRO __PUTWMRN
	STS  @0+(@1),R@2
	STS  @0+(@1)+1,R@3
	.ENDM

	.MACRO __PUTBZR
	STD  Z+@1,R@0
	.ENDM

	.MACRO __PUTWZR
	STD  Z+@2,R@0
	STD  Z+@2+1,R@1
	.ENDM

	.MACRO __GETW1R
	MOV  R30,R@0
	MOV  R31,R@1
	.ENDM

	.MACRO __GETW2R
	MOV  R26,R@0
	MOV  R27,R@1
	.ENDM

	.MACRO __GETWRN
	LDI  R@0,LOW(@2)
	LDI  R@1,HIGH(@2)
	.ENDM

	.MACRO __PUTW1R
	MOV  R@0,R30
	MOV  R@1,R31
	.ENDM

	.MACRO __PUTW2R
	MOV  R@0,R26
	MOV  R@1,R27
	.ENDM

	.MACRO __ADDWRN
	SUBI R@0,LOW(-@2)
	SBCI R@1,HIGH(-@2)
	.ENDM

	.MACRO __ADDWRR
	ADD  R@0,R@2
	ADC  R@1,R@3
	.ENDM

	.MACRO __SUBWRN
	SUBI R@0,LOW(@2)
	SBCI R@1,HIGH(@2)
	.ENDM

	.MACRO __SUBWRR
	SUB  R@0,R@2
	SBC  R@1,R@3
	.ENDM

	.MACRO __ANDWRN
	ANDI R@0,LOW(@2)
	ANDI R@1,HIGH(@2)
	.ENDM

	.MACRO __ANDWRR
	AND  R@0,R@2
	AND  R@1,R@3
	.ENDM

	.MACRO __ORWRN
	ORI  R@0,LOW(@2)
	ORI  R@1,HIGH(@2)
	.ENDM

	.MACRO __ORWRR
	OR   R@0,R@2
	OR   R@1,R@3
	.ENDM

	.MACRO __EORWRR
	EOR  R@0,R@2
	EOR  R@1,R@3
	.ENDM

	.MACRO __GETWRS
	LDD  R@0,Y+@2
	LDD  R@1,Y+@2+1
	.ENDM

	.MACRO __PUTBSR
	STD  Y+@1,R@0
	.ENDM

	.MACRO __PUTWSR
	STD  Y+@2,R@0
	STD  Y+@2+1,R@1
	.ENDM

	.MACRO __MOVEWRR
	MOV  R@0,R@2
	MOV  R@1,R@3
	.ENDM

	.MACRO __INWR
	IN   R@0,@2
	IN   R@1,@2+1
	.ENDM

	.MACRO __OUTWR
	OUT  @2+1,R@1
	OUT  @2,R@0
	.ENDM

	.MACRO __CALL1MN
	LDS  R30,@0+(@1)
	LDS  R31,@0+(@1)+1
	ICALL
	.ENDM

	.MACRO __CALL1FN
	LDI  R30,LOW(2*@0+(@1))
	LDI  R31,HIGH(2*@0+(@1))
	CALL __GETW1PF
	ICALL
	.ENDM

	.MACRO __CALL2EN
	LDI  R26,LOW(@0+(@1))
	LDI  R27,HIGH(@0+(@1))
	CALL __EEPROMRDW
	ICALL
	.ENDM

	.MACRO __GETW1STACK
	IN   R26,SPL
	IN   R27,SPH
	ADIW R26,@0+1
	LD   R30,X+
	LD   R31,X
	.ENDM

	.MACRO __GETD1STACK
	IN   R26,SPL
	IN   R27,SPH
	ADIW R26,@0+1
	LD   R30,X+
	LD   R31,X+
	LD   R22,X
	.ENDM

	.MACRO __NBST
	BST  R@0,@1
	IN   R30,SREG
	LDI  R31,0x40
	EOR  R30,R31
	OUT  SREG,R30
	.ENDM


	.MACRO __PUTB1SN
	LDD  R26,Y+@0
	LDD  R27,Y+@0+1
	SUBI R26,LOW(-@1)
	SBCI R27,HIGH(-@1)
	ST   X,R30
	.ENDM

	.MACRO __PUTW1SN
	LDD  R26,Y+@0
	LDD  R27,Y+@0+1
	SUBI R26,LOW(-@1)
	SBCI R27,HIGH(-@1)
	ST   X+,R30
	ST   X,R31
	.ENDM

	.MACRO __PUTD1SN
	LDD  R26,Y+@0
	LDD  R27,Y+@0+1
	SUBI R26,LOW(-@1)
	SBCI R27,HIGH(-@1)
	CALL __PUTDP1
	.ENDM

	.MACRO __PUTB1SNS
	LDD  R26,Y+@0
	LDD  R27,Y+@0+1
	ADIW R26,@1
	ST   X,R30
	.ENDM

	.MACRO __PUTW1SNS
	LDD  R26,Y+@0
	LDD  R27,Y+@0+1
	ADIW R26,@1
	ST   X+,R30
	ST   X,R31
	.ENDM

	.MACRO __PUTD1SNS
	LDD  R26,Y+@0
	LDD  R27,Y+@0+1
	ADIW R26,@1
	CALL __PUTDP1
	.ENDM

	.MACRO __PUTB1PMN
	LDS  R26,@0
	LDS  R27,@0+1
	SUBI R26,LOW(-@1)
	SBCI R27,HIGH(-@1)
	ST   X,R30
	.ENDM

	.MACRO __PUTW1PMN
	LDS  R26,@0
	LDS  R27,@0+1
	SUBI R26,LOW(-@1)
	SBCI R27,HIGH(-@1)
	ST   X+,R30
	ST   X,R31
	.ENDM

	.MACRO __PUTD1PMN
	LDS  R26,@0
	LDS  R27,@0+1
	SUBI R26,LOW(-@1)
	SBCI R27,HIGH(-@1)
	CALL __PUTDP1
	.ENDM

	.MACRO __PUTB1PMNS
	LDS  R26,@0
	LDS  R27,@0+1
	ADIW R26,@1
	ST   X,R30
	.ENDM

	.MACRO __PUTW1PMNS
	LDS  R26,@0
	LDS  R27,@0+1
	ADIW R26,@1
	ST   X+,R30
	ST   X,R31
	.ENDM

	.MACRO __PUTD1PMNS
	LDS  R26,@0
	LDS  R27,@0+1
	ADIW R26,@1
	CALL __PUTDP1
	.ENDM

	.MACRO __PUTB1RN
	MOVW R26,R@0
	SUBI R26,LOW(-@1)
	SBCI R27,HIGH(-@1)
	ST   X,R30
	.ENDM

	.MACRO __PUTW1RN
	MOVW R26,R@0
	SUBI R26,LOW(-@1)
	SBCI R27,HIGH(-@1)
	ST   X+,R30
	ST   X,R31
	.ENDM

	.MACRO __PUTD1RN
	MOVW R26,R@0
	SUBI R26,LOW(-@1)
	SBCI R27,HIGH(-@1)
	CALL __PUTDP1
	.ENDM

	.MACRO __PUTB1RNS
	MOVW R26,R@0
	ADIW R26,@1
	ST   X,R30
	.ENDM

	.MACRO __PUTW1RNS
	MOVW R26,R@0
	ADIW R26,@1
	ST   X+,R30
	ST   X,R31
	.ENDM

	.MACRO __PUTD1RNS
	MOVW R26,R@0
	ADIW R26,@1
	CALL __PUTDP1
	.ENDM

	.MACRO __PUTB1RON
	MOV  R26,R@0
	MOV  R27,R@1
	SUBI R26,LOW(-@2)
	SBCI R27,HIGH(-@2)
	ST   X,R30
	.ENDM

	.MACRO __PUTW1RON
	MOV  R26,R@0
	MOV  R27,R@1
	SUBI R26,LOW(-@2)
	SBCI R27,HIGH(-@2)
	ST   X+,R30
	ST   X,R31
	.ENDM

	.MACRO __PUTD1RON
	MOV  R26,R@0
	MOV  R27,R@1
	SUBI R26,LOW(-@2)
	SBCI R27,HIGH(-@2)
	CALL __PUTDP1
	.ENDM

	.MACRO __PUTB1RONS
	MOV  R26,R@0
	MOV  R27,R@1
	ADIW R26,@2
	ST   X,R30
	.ENDM

	.MACRO __PUTW1RONS
	MOV  R26,R@0
	MOV  R27,R@1
	ADIW R26,@2
	ST   X+,R30
	ST   X,R31
	.ENDM

	.MACRO __PUTD1RONS
	MOV  R26,R@0
	MOV  R27,R@1
	ADIW R26,@2
	CALL __PUTDP1
	.ENDM


	.MACRO __GETB1SX
	MOVW R30,R28
	SUBI R30,LOW(-@0)
	SBCI R31,HIGH(-@0)
	LD   R30,Z
	.ENDM

	.MACRO __GETB1HSX
	MOVW R30,R28
	SUBI R30,LOW(-@0)
	SBCI R31,HIGH(-@0)
	LD   R31,Z
	.ENDM

	.MACRO __GETW1SX
	MOVW R30,R28
	SUBI R30,LOW(-@0)
	SBCI R31,HIGH(-@0)
	LD   R0,Z+
	LD   R31,Z
	MOV  R30,R0
	.ENDM

	.MACRO __GETD1SX
	MOVW R30,R28
	SUBI R30,LOW(-@0)
	SBCI R31,HIGH(-@0)
	LD   R0,Z+
	LD   R1,Z+
	LD   R22,Z+
	LD   R23,Z
	MOVW R30,R0
	.ENDM

	.MACRO __GETB2SX
	MOVW R26,R28
	SUBI R26,LOW(-@0)
	SBCI R27,HIGH(-@0)
	LD   R26,X
	.ENDM

	.MACRO __GETW2SX
	MOVW R26,R28
	SUBI R26,LOW(-@0)
	SBCI R27,HIGH(-@0)
	LD   R0,X+
	LD   R27,X
	MOV  R26,R0
	.ENDM

	.MACRO __GETD2SX
	MOVW R26,R28
	SUBI R26,LOW(-@0)
	SBCI R27,HIGH(-@0)
	LD   R0,X+
	LD   R1,X+
	LD   R24,X+
	LD   R25,X
	MOVW R26,R0
	.ENDM

	.MACRO __GETBRSX
	MOVW R30,R28
	SUBI R30,LOW(-@1)
	SBCI R31,HIGH(-@1)
	LD   R@0,Z
	.ENDM

	.MACRO __GETWRSX
	MOVW R30,R28
	SUBI R30,LOW(-@2)
	SBCI R31,HIGH(-@2)
	LD   R@0,Z+
	LD   R@1,Z
	.ENDM

	.MACRO __GETBRSX2
	MOVW R26,R28
	SUBI R26,LOW(-@1)
	SBCI R27,HIGH(-@1)
	LD   R@0,X
	.ENDM

	.MACRO __GETWRSX2
	MOVW R26,R28
	SUBI R26,LOW(-@2)
	SBCI R27,HIGH(-@2)
	LD   R@0,X+
	LD   R@1,X
	.ENDM

	.MACRO __LSLW8SX
	MOVW R30,R28
	SUBI R30,LOW(-@0)
	SBCI R31,HIGH(-@0)
	LD   R31,Z
	CLR  R30
	.ENDM

	.MACRO __PUTB1SX
	MOVW R26,R28
	SUBI R26,LOW(-@0)
	SBCI R27,HIGH(-@0)
	ST   X,R30
	.ENDM

	.MACRO __PUTW1SX
	MOVW R26,R28
	SUBI R26,LOW(-@0)
	SBCI R27,HIGH(-@0)
	ST   X+,R30
	ST   X,R31
	.ENDM

	.MACRO __PUTD1SX
	MOVW R26,R28
	SUBI R26,LOW(-@0)
	SBCI R27,HIGH(-@0)
	ST   X+,R30
	ST   X+,R31
	ST   X+,R22
	ST   X,R23
	.ENDM

	.MACRO __CLRW1SX
	MOVW R26,R28
	SUBI R26,LOW(-@0)
	SBCI R27,HIGH(-@0)
	ST   X+,R30
	ST   X,R30
	.ENDM

	.MACRO __CLRD1SX
	MOVW R26,R28
	SUBI R26,LOW(-@0)
	SBCI R27,HIGH(-@0)
	ST   X+,R30
	ST   X+,R30
	ST   X+,R30
	ST   X,R30
	.ENDM

	.MACRO __PUTB2SX
	MOVW R30,R28
	SUBI R30,LOW(-@0)
	SBCI R31,HIGH(-@0)
	ST   Z,R26
	.ENDM

	.MACRO __PUTW2SX
	MOVW R30,R28
	SUBI R30,LOW(-@0)
	SBCI R31,HIGH(-@0)
	ST   Z+,R26
	ST   Z,R27
	.ENDM

	.MACRO __PUTD2SX
	MOVW R30,R28
	SUBI R30,LOW(-@0)
	SBCI R31,HIGH(-@0)
	ST   Z+,R26
	ST   Z+,R27
	ST   Z+,R24
	ST   Z,R25
	.ENDM

	.MACRO __PUTBSRX
	MOVW R30,R28
	SUBI R30,LOW(-@1)
	SBCI R31,HIGH(-@1)
	ST   Z,R@0
	.ENDM

	.MACRO __PUTWSRX
	MOVW R30,R28
	SUBI R30,LOW(-@2)
	SBCI R31,HIGH(-@2)
	ST   Z+,R@0
	ST   Z,R@1
	.ENDM

	.MACRO __PUTB1SNX
	MOVW R26,R28
	SUBI R26,LOW(-@0)
	SBCI R27,HIGH(-@0)
	LD   R0,X+
	LD   R27,X
	MOV  R26,R0
	SUBI R26,LOW(-@1)
	SBCI R27,HIGH(-@1)
	ST   X,R30
	.ENDM

	.MACRO __PUTW1SNX
	MOVW R26,R28
	SUBI R26,LOW(-@0)
	SBCI R27,HIGH(-@0)
	LD   R0,X+
	LD   R27,X
	MOV  R26,R0
	SUBI R26,LOW(-@1)
	SBCI R27,HIGH(-@1)
	ST   X+,R30
	ST   X,R31
	.ENDM

	.MACRO __PUTD1SNX
	MOVW R26,R28
	SUBI R26,LOW(-@0)
	SBCI R27,HIGH(-@0)
	LD   R0,X+
	LD   R27,X
	MOV  R26,R0
	SUBI R26,LOW(-@1)
	SBCI R27,HIGH(-@1)
	ST   X+,R30
	ST   X+,R31
	ST   X+,R22
	ST   X,R23
	.ENDM

	.MACRO __MULBRR
	MULS R@0,R@1
	MOVW R30,R0
	.ENDM

	.MACRO __MULBRRU
	MUL  R@0,R@1
	MOVW R30,R0
	.ENDM

	.MACRO __MULBRR0
	MULS R@0,R@1
	.ENDM

	.MACRO __MULBRRU0
	MUL  R@0,R@1
	.ENDM

	.MACRO __MULBNWRU
	LDI  R26,@2
	MUL  R26,R@0
	MOVW R30,R0
	MUL  R26,R@1
	ADD  R31,R0
	.ENDM

;NAME DEFINITIONS FOR GLOBAL VARIABLES ALLOCATED TO REGISTERS
	.DEF _OutVal1=R4
	.DEF _OutVal2=R6
	.DEF _OutVal3=R8
	.DEF _OutVal4=R10

	.CSEG
	.ORG 0x00

;START OF CODE MARKER
__START_OF_CODE:

;INTERRUPT VECTORS
	JMP  __RESET
	JMP  0x00
	JMP  0x00
	JMP  0x00
	JMP  0x00
	JMP  0x00
	JMP  0x00
	JMP  0x00
	JMP  0x00
	JMP  0x00
	JMP  0x00
	JMP  0x00
	JMP  _timer1_compa_isr
	JMP  0x00
	JMP  0x00
	JMP  0x00
	JMP  0x00
	JMP  0x00
	JMP  0x00
	JMP  0x00
	JMP  0x00
	JMP  0x00
	JMP  0x00
	JMP  0x00
	JMP  0x00
	JMP  0x00
	JMP  0x00
	JMP  0x00
	JMP  0x00
	JMP  0x00
	JMP  0x00
	JMP  0x00
	JMP  0x00
	JMP  0x00
	JMP  0x00

_0x1A:
	.DB  0x1,0x0,0x1,0x0,0x1,0x0,0x9,0x0

__GLOBAL_INI_TBL:
	.DW  0x08
	.DW  0x04
	.DW  _0x1A*2

_0xFFFFFFFF:
	.DW  0

__RESET:
	CLI
	CLR  R30
	OUT  EECR,R30

;INTERRUPT VECTORS ARE PLACED
;AT THE START OF FLASH
	LDI  R31,1
	OUT  MCUCR,R31
	OUT  MCUCR,R30
	STS  XMCRB,R30

;DISABLE WATCHDOG
	LDI  R31,0x18
	OUT  WDTCR,R31
	OUT  WDTCR,R30

;CLEAR R2-R14
	LDI  R24,(14-2)+1
	LDI  R26,2
	CLR  R27
__CLEAR_REG:
	ST   X+,R30
	DEC  R24
	BRNE __CLEAR_REG

;CLEAR SRAM
	LDI  R24,LOW(__CLEAR_SRAM_SIZE)
	LDI  R25,HIGH(__CLEAR_SRAM_SIZE)
	LDI  R26,LOW(__SRAM_START)
	LDI  R27,HIGH(__SRAM_START)
__CLEAR_SRAM:
	ST   X+,R30
	SBIW R24,1
	BRNE __CLEAR_SRAM

;GLOBAL VARIABLES INITIALIZATION
	LDI  R30,LOW(__GLOBAL_INI_TBL*2)
	LDI  R31,HIGH(__GLOBAL_INI_TBL*2)
__GLOBAL_INI_NEXT:
	LPM  R24,Z+
	LPM  R25,Z+
	SBIW R24,0
	BREQ __GLOBAL_INI_END
	LPM  R26,Z+
	LPM  R27,Z+
	LPM  R0,Z+
	LPM  R1,Z+
	MOVW R22,R30
	MOVW R30,R0
__GLOBAL_INI_LOOP:
	LPM  R0,Z+
	ST   X+,R0
	SBIW R24,1
	BRNE __GLOBAL_INI_LOOP
	MOVW R30,R22
	RJMP __GLOBAL_INI_NEXT
__GLOBAL_INI_END:

;HARDWARE STACK POINTER INITIALIZATION
	LDI  R30,LOW(__SRAM_END-__HEAP_SIZE)
	OUT  SPL,R30
	LDI  R30,HIGH(__SRAM_END-__HEAP_SIZE)
	OUT  SPH,R30

;DATA STACK POINTER INITIALIZATION
	LDI  R28,LOW(__SRAM_START+__DSTACK_SIZE)
	LDI  R29,HIGH(__SRAM_START+__DSTACK_SIZE)

	JMP  _main

	.ESEG
	.ORG 0

	.DSEG
	.ORG 0x500

	.CSEG
;/*****************************************************
;This program was produced by the
;CodeWizardAVR V2.05.3 Standard
;Automatic Program Generator
;© Copyright 1998-2011 Pavel Haiduc, HP InfoTech s.r.l.
;http://www.hpinfotech.com
;
;Project :
;Version :
;Date    : 3/5/2016
;Author  : Reza
;Company :
;Comments:
;
;
;Chip type               : ATmega64
;Program type            : Application
;AVR Core Clock frequency: 8.000000 MHz
;Memory model            : Small
;External RAM size       : 0
;Data Stack size         : 1024
;*****************************************************/
;#include <mega64.h>
	#ifndef __SLEEP_DEFINED__
	#define __SLEEP_DEFINED__
	.EQU __se_bit=0x20
	.EQU __sm_mask=0x1C
	.EQU __sm_powerdown=0x10
	.EQU __sm_powersave=0x18
	.EQU __sm_standby=0x14
	.EQU __sm_ext_standby=0x1C
	.EQU __sm_adc_noise_red=0x08
	.SET power_ctrl_reg=mcucr
	#endif
;#include <delay.h>
;//
;//#DEFINE SS_DP PORTC //SSDP:Seven segement data port
;//#DEFINE SSDPD DDRC //SSDD:Seven segement data port direction
;//
;//#DEFINE SS_AP PORTA//SSAP:Seven segement activation port
;//#DEFINE SSAPD DDRA//SSDD:Seven segement activation port direction
;
;#define PORT_OUTPUT 0XFF
;#define PORT_INPUT  0X00
;#define SS_0 0X3F
;#define SS_1 0X06
;#define SS_2 0X5B
;#define SS_3 0X4F
;#define SS_4 0X66
;#define SS_5 0X6D
;#define SS_6 0X7D
;#define SS_7 0X07
;#define SS_8 0X8F
;#define SS_9 0X6F
;
;#define TIMER_CLK_PRE_1024 0x05
;#define TIMER_CTC 0x08
;
;// Declare your global variables here
;int OutVal1 = 1;
;int OutVal2 = 1;
;int OutVal3 = 1;
;int OutVal4 = 9;
;
;void ActivateSevenSegement(int index);
;void SetSevenSegement(int OutNum);
;
;// Timer1 output compare A interrupt service routine
;interrupt [TIM1_COMPA] void timer1_compa_isr(void)
; 0000 003B {

	.CSEG
_timer1_compa_isr:
	ST   -Y,R0
	ST   -Y,R30
	ST   -Y,R31
	IN   R30,SREG
	ST   -Y,R30
; 0000 003C // Place your code here
; 0000 003D     if(OutVal4 == 0){
	MOV  R0,R10
	OR   R0,R11
	BRNE _0x3
; 0000 003E         OutVal4 = 9;
	LDI  R30,LOW(9)
	LDI  R31,HIGH(9)
	RJMP _0x19
; 0000 003F         return;
; 0000 0040     }
; 0000 0041     OutVal4 --;
_0x3:
	MOVW R30,R10
	SBIW R30,1
_0x19:
	MOVW R10,R30
; 0000 0042 
; 0000 0043 }
	LD   R30,Y+
	OUT  SREG,R30
	LD   R31,Y+
	LD   R30,Y+
	LD   R0,Y+
	RETI
;
;void RefreshSevenSegement(int val1,int val2,int val3,int val4)
; 0000 0046 {
_RefreshSevenSegement:
; 0000 0047     ActivateSevenSegement(1);
	ST   -Y,R27
	ST   -Y,R26
;	val1 -> Y+6
;	val2 -> Y+4
;	val3 -> Y+2
;	val4 -> Y+0
	RCALL SUBOPT_0x0
	RCALL _ActivateSevenSegement
; 0000 0048     SetSevenSegement(val1);
	LDD  R26,Y+6
	LDD  R27,Y+6+1
	RCALL SUBOPT_0x1
; 0000 0049     delay_ms(1);
	CALL _delay_ms
; 0000 004A     ActivateSevenSegement(2);
	LDI  R26,LOW(2)
	RCALL SUBOPT_0x2
; 0000 004B     SetSevenSegement(val2);
	LDD  R26,Y+4
	LDD  R27,Y+4+1
	RCALL SUBOPT_0x1
; 0000 004C     delay_ms(1);
	CALL _delay_ms
; 0000 004D     ActivateSevenSegement(3);
	LDI  R26,LOW(3)
	RCALL SUBOPT_0x2
; 0000 004E     SetSevenSegement(val3);
	LDD  R26,Y+2
	LDD  R27,Y+2+1
	RCALL SUBOPT_0x1
; 0000 004F     delay_ms(1);
	CALL _delay_ms
; 0000 0050     ActivateSevenSegement(4);
	LDI  R26,LOW(4)
	RCALL SUBOPT_0x2
; 0000 0051     SetSevenSegement(val4);
	LD   R26,Y
	LDD  R27,Y+1
	RCALL SUBOPT_0x1
; 0000 0052     delay_ms(1);
	CALL _delay_ms
; 0000 0053 }
	ADIW R28,8
	RET
;
;
;void InitSevenSegement()
; 0000 0057 {
_InitSevenSegement:
; 0000 0058     // Input/Output Ports initialization
; 0000 0059     // Port A initialization
; 0000 005A     // Func7=In Func6=In Func5=In Func4=In Func3=In Func2=In Func1=In Func0=In
; 0000 005B     // State7=T State6=T State5=T State4=T State3=T State2=T State1=T State0=T
; 0000 005C     PORTA=0x00;
	LDI  R30,LOW(0)
	OUT  0x1B,R30
; 0000 005D     DDRA=PORT_OUTPUT;
	LDI  R30,LOW(255)
	OUT  0x1A,R30
; 0000 005E 
; 0000 005F     // Port C initialization
; 0000 0060     // Func7=Out Func6=Out Func5=Out Func4=Out Func3=Out Func2=Out Func1=Out Func0=Out
; 0000 0061     // State7=0 State6=0 State5=0 State4=0 State3=0 State2=0 State1=0 State0=0
; 0000 0062     PORTC=0x00;
	LDI  R30,LOW(0)
	OUT  0x15,R30
; 0000 0063     DDRC=PORT_OUTPUT;
	LDI  R30,LOW(255)
	OUT  0x14,R30
; 0000 0064 
; 0000 0065     //enable first seven segement
; 0000 0066     //PORTA |= 0x01;
; 0000 0067 }
	RET
;
;void ActivateSevenSegement(int index)
; 0000 006A {   //PORTA = 0x00;
_ActivateSevenSegement:
; 0000 006B     if( index > 0 && index <5)
	ST   -Y,R27
	ST   -Y,R26
;	index -> Y+0
	LD   R26,Y
	LDD  R27,Y+1
	CALL __CPW02
	BRGE _0x5
	SBIW R26,5
	BRLT _0x6
_0x5:
	RJMP _0x4
_0x6:
; 0000 006C         PORTA = (1 << (index - 1));
	LD   R30,Y
	SUBI R30,LOW(1)
	LDI  R26,LOW(1)
	CALL __LSLB12
	OUT  0x1B,R30
; 0000 006D }
_0x4:
	RJMP _0x2000001
;
;void InitTimer()
; 0000 0070 {
_InitTimer:
; 0000 0071     // Timer/Counter 1 initialization
; 0000 0072     // Clock source: System Clock
; 0000 0073     // Clock value: 7.813 kHz
; 0000 0074     // Mode: CTC top=OCR1A
; 0000 0075     // OC1A output: Discon.
; 0000 0076     // OC1B output: Discon.
; 0000 0077     // OC1C output: Discon.
; 0000 0078     // Noise Canceler: Off
; 0000 0079     // Input Capture on Falling Edge
; 0000 007A     // Timer1 Overflow Interrupt: Off
; 0000 007B     // Input Capture Interrupt: Off
; 0000 007C     // Compare A Match Interrupt: On
; 0000 007D     // Compare B Match Interrupt: Off
; 0000 007E     // Compare C Match Interrupt: Off
; 0000 007F 
; 0000 0080     TCCR1B=TIMER_CLK_PRE_1024 | TIMER_CTC;
	LDI  R30,LOW(13)
	OUT  0x2E,R30
; 0000 0081 
; 0000 0082     OCR1AH=0x1E;
	LDI  R30,LOW(30)
	OUT  0x2B,R30
; 0000 0083     OCR1AL=0x85;
	LDI  R30,LOW(133)
	OUT  0x2A,R30
; 0000 0084 
; 0000 0085     // Timer(s)/Counter(s) Interrupt(s) initialization
; 0000 0086     TIMSK=0x10;
	LDI  R30,LOW(16)
	OUT  0x37,R30
; 0000 0087 
; 0000 0088 }
	RET
;
;void SetSevenSegement(int OutNum)
; 0000 008B {
_SetSevenSegement:
; 0000 008C     switch (OutNum)
	ST   -Y,R27
	ST   -Y,R26
;	OutNum -> Y+0
	LD   R30,Y
	LDD  R31,Y+1
; 0000 008D     {
; 0000 008E         case 0:
	SBIW R30,0
	BRNE _0xA
; 0000 008F             PORTC = SS_0;
	LDI  R30,LOW(63)
	OUT  0x15,R30
; 0000 0090             break;
	RJMP _0x9
; 0000 0091 
; 0000 0092         case 1:
_0xA:
	CPI  R30,LOW(0x1)
	LDI  R26,HIGH(0x1)
	CPC  R31,R26
	BRNE _0xB
; 0000 0093             PORTC = SS_1;
	LDI  R30,LOW(6)
	OUT  0x15,R30
; 0000 0094             break;
	RJMP _0x9
; 0000 0095 
; 0000 0096         case 2:
_0xB:
	CPI  R30,LOW(0x2)
	LDI  R26,HIGH(0x2)
	CPC  R31,R26
	BRNE _0xC
; 0000 0097             PORTC = SS_2;
	LDI  R30,LOW(91)
	OUT  0x15,R30
; 0000 0098             break;
	RJMP _0x9
; 0000 0099 
; 0000 009A         case 3:
_0xC:
	CPI  R30,LOW(0x3)
	LDI  R26,HIGH(0x3)
	CPC  R31,R26
	BRNE _0xD
; 0000 009B             PORTC = SS_3;
	LDI  R30,LOW(79)
	OUT  0x15,R30
; 0000 009C             break;
	RJMP _0x9
; 0000 009D 
; 0000 009E         case 4:
_0xD:
	CPI  R30,LOW(0x4)
	LDI  R26,HIGH(0x4)
	CPC  R31,R26
	BRNE _0xE
; 0000 009F             PORTC = SS_4;
	LDI  R30,LOW(102)
	OUT  0x15,R30
; 0000 00A0             break;
	RJMP _0x9
; 0000 00A1 
; 0000 00A2         case 5:
_0xE:
	CPI  R30,LOW(0x5)
	LDI  R26,HIGH(0x5)
	CPC  R31,R26
	BRNE _0xF
; 0000 00A3             PORTC = SS_5;
	LDI  R30,LOW(109)
	OUT  0x15,R30
; 0000 00A4             break;
	RJMP _0x9
; 0000 00A5         case 6:
_0xF:
	CPI  R30,LOW(0x6)
	LDI  R26,HIGH(0x6)
	CPC  R31,R26
	BRNE _0x10
; 0000 00A6             PORTC = SS_6;
	LDI  R30,LOW(125)
	OUT  0x15,R30
; 0000 00A7             break;
	RJMP _0x9
; 0000 00A8         case 7:
_0x10:
	CPI  R30,LOW(0x7)
	LDI  R26,HIGH(0x7)
	CPC  R31,R26
	BRNE _0x11
; 0000 00A9             PORTC = SS_7;
	LDI  R30,LOW(7)
	OUT  0x15,R30
; 0000 00AA             break;
	RJMP _0x9
; 0000 00AB          case 8:
_0x11:
	CPI  R30,LOW(0x8)
	LDI  R26,HIGH(0x8)
	CPC  R31,R26
	BRNE _0x12
; 0000 00AC             PORTC = SS_8;
	LDI  R30,LOW(143)
	OUT  0x15,R30
; 0000 00AD             break;
	RJMP _0x9
; 0000 00AE          case 9:
_0x12:
	CPI  R30,LOW(0x9)
	LDI  R26,HIGH(0x9)
	CPC  R31,R26
	BRNE _0x14
; 0000 00AF             PORTC = SS_9;
	LDI  R30,LOW(111)
	OUT  0x15,R30
; 0000 00B0             break;
; 0000 00B1          default:
_0x14:
; 0000 00B2             break;
; 0000 00B3 
; 0000 00B4 
; 0000 00B5     }
_0x9:
; 0000 00B6 }
_0x2000001:
	ADIW R28,2
	RET
;
;
;void main(void)
; 0000 00BA {
_main:
; 0000 00BB // Declare your local variables here
; 0000 00BC 
; 0000 00BD //Initialize timer
; 0000 00BE InitTimer();
	RCALL _InitTimer
; 0000 00BF //initialize seven segement
; 0000 00C0 InitSevenSegement();
	RCALL _InitSevenSegement
; 0000 00C1 
; 0000 00C2 // Global enable interrupts
; 0000 00C3 #asm("sei")
	sei
; 0000 00C4 
; 0000 00C5 while (1)
_0x15:
; 0000 00C6       {
; 0000 00C7       // Place your code here
; 0000 00C8       //SetSevenSegement(OutVal);
; 0000 00C9       RefreshSevenSegement(OutVal1,OutVal2,OutVal3,OutVal4);
	ST   -Y,R5
	ST   -Y,R4
	ST   -Y,R7
	ST   -Y,R6
	ST   -Y,R9
	ST   -Y,R8
	MOVW R26,R10
	RCALL _RefreshSevenSegement
; 0000 00CA       }
	RJMP _0x15
; 0000 00CB }
_0x18:
	RJMP _0x18

	.CSEG
;OPTIMIZER ADDED SUBROUTINE, CALLED 5 TIMES, CODE SIZE REDUCTION:5 WORDS
SUBOPT_0x0:
	LDI  R26,LOW(1)
	LDI  R27,0
	RET

;OPTIMIZER ADDED SUBROUTINE, CALLED 4 TIMES, CODE SIZE REDUCTION:3 WORDS
SUBOPT_0x1:
	RCALL _SetSevenSegement
	RJMP SUBOPT_0x0

;OPTIMIZER ADDED SUBROUTINE, CALLED 3 TIMES, CODE SIZE REDUCTION:3 WORDS
SUBOPT_0x2:
	LDI  R27,0
	RJMP _ActivateSevenSegement


	.CSEG
_delay_ms:
	adiw r26,0
	breq __delay_ms1
__delay_ms0:
	__DELAY_USW 0x7D0
	wdr
	sbiw r26,1
	brne __delay_ms0
__delay_ms1:
	ret

__LSLB12:
	TST  R30
	MOV  R0,R30
	MOV  R30,R26
	BREQ __LSLB12R
__LSLB12L:
	LSL  R30
	DEC  R0
	BRNE __LSLB12L
__LSLB12R:
	RET

__CPW02:
	CLR  R0
	CP   R0,R26
	CPC  R0,R27
	RET

;END OF CODE MARKER
__END_OF_CODE:
